target datalayout = "e-m:e-p270:32:32-p271:32:32-p272:64:64-i64:64-i128:128-f80:128-n8:16:32:64-S128"
target triple = "x86_64-pc-linux-gnu"

%"class.llvm::MCFragment" = type <{ ptr, ptr, i64, i32, i8, i8, [2 x i8] }>

; Function Attrs: mustprogress nounwind uwtable
define dso_local void @_ZN4llvm10MCFragmentC2ENS0_12FragmentTypeEb(ptr noundef nonnull align 8 dereferenceable(30) %0, i8 noundef zeroext %1, i1 noundef zeroext %2) unnamed_addr #0 align 2 {
  %4 = alloca ptr, align 8
  %5 = alloca i8, align 1
  %6 = alloca i8, align 1
  store ptr %0, ptr %4, align 8
  store i8 %1, ptr %5, align 1
  %7 = zext i1 %2 to i8
  store i8 %7, ptr %6, align 1
  %8 = load ptr, ptr %4, align 8
  %9 = getelementptr inbounds nuw %"class.llvm::MCFragment", ptr %8, i32 0, i32 0
  store ptr null, ptr %9, align 8
  %10 = getelementptr inbounds nuw %"class.llvm::MCFragment", ptr %8, i32 0, i32 1
  store ptr null, ptr %10, align 8
  %11 = getelementptr inbounds nuw %"class.llvm::MCFragment", ptr %8, i32 0, i32 2
  store i64 0, ptr %11, align 8
  %12 = getelementptr inbounds nuw %"class.llvm::MCFragment", ptr %8, i32 0, i32 3
  store i32 0, ptr %12, align 8
  %13 = getelementptr inbounds nuw %"class.llvm::MCFragment", ptr %8, i32 0, i32 4
  %14 = load i8, ptr %5, align 1
  store i8 %14, ptr %13, align 4
  %15 = getelementptr inbounds nuw %"class.llvm::MCFragment", ptr %8, i32 0, i32 5
  %16 = load i8, ptr %6, align 1
  %17 = trunc i8 %16 to i1
  %18 = zext i1 %17 to i8
  %19 = load i8, ptr %15, align 1
  %20 = and i8 %19, -2
  %21 = or i8 %20, %18
  store i8 %21, ptr %15, align 1
  %22 = getelementptr inbounds nuw %"class.llvm::MCFragment", ptr %8, i32 0, i32 5
  %23 = load i8, ptr %22, align 1
  %24 = and i8 %23, -3
  %25 = or i8 %24, 0
  store i8 %25, ptr %22, align 1
  %26 = getelementptr inbounds nuw %"class.llvm::MCFragment", ptr %8, i32 0, i32 5
  %27 = load i8, ptr %26, align 1
  %28 = and i8 %27, -5
  %29 = or i8 %28, 0
  store i8 %29, ptr %26, align 1
  %30 = getelementptr inbounds nuw %"class.llvm::MCFragment", ptr %8, i32 0, i32 5
  %31 = load i8, ptr %30, align 1
  %32 = and i8 %31, -9
  %33 = or i8 %32, 0
  store i8 %33, ptr %30, align 1
  ret void
}