; Function Attrs: mustprogress nofree norecurse nosync nounwind willreturn memory(argmem: readwrite) uwtable
define dso_local void @_ZN4llvm10MCFragmentC2ENS0_12FragmentTypeEb(ptr noundef nonnull align 8 captures(none) dereferenceable(30) initializes((0, 29)) %0, i8 noundef zeroext %1, i1 noundef zeroext %2) unnamed_addr #0 align 2 {
  %4 = zext i1 %2 to i8
  %5 = getelementptr inbounds nuw i8, ptr %0, i64 28
  tail call void @llvm.memset.p0.i64(ptr noundef nonnull align 8 dereferenceable(28) %0, i8 0, i64 28, i1 false)
  store i8 %1, ptr %5, align 4
  %6 = getelementptr inbounds nuw i8, ptr %0, i64 29
  %7 = load i8, ptr %6, align 1
  %8 = and i8 %7, -16
  %9 = or disjoint i8 %8, %4
  store i8 %9, ptr %6, align 1
  ret void
}